#include <math.h>
#include <stdio.h>
#include <stdlib.h>
#include <string.h>

int main()
{
	char z[101];
	int i,j,l[101],r[101];
	while(scanf("%s",z)!=EOF)
	{
		for(i=0;i<101;i++)
		{
			l[i]=0;
			r[i]=0;
		}
		for(i=0;i<strlen(z);i++)
		{
			if(z[i]=='(')
				l[i]=1;
			if(z[i]==')')
				r[i]=1;
		}
		for(i=0;i<strlen(z);i++)
		{
			if(l[i]==1)
			{
				for(j=i+1;j<strlen(z);j++)
				{
					if(l[j]==1)
						l[i]++;
					if(r[j]==1)
						l[i]--;
					if(l[i]==0)
					{
						r[j]=0;
						break;
					}
				}
			}
		}
		printf("%s\n",z);
		for(i=0;i<strlen(z);i++)
		{
			if(l[i]!=0)
				printf("$");
			else if(r[i]!=0)
				printf("?");
			else
				printf(" ");
		}
		printf("\n");
	}
	return 0;
}